target datalayout = "e-m:e-p270:32:32-p271:32:32-p272:64:64-i64:64-i128:128-f80:128-n8:16:32:64-S128"
target triple = "x86_64-pc-linux-gnu"

%struct.ssl_connection_st = type { %struct.ssl_st, ptr, i32, ptr, ptr, ptr, i32, ptr, i32, i32, i32, i32, %struct.OSSL_TIME, %struct.OSSL_TIME, %struct.ossl_statem_st, i32, ptr, ptr, i64, i64, i64, %struct.ossl_quic_tls_callbacks_st, ptr, ptr, %struct.anon, ptr, ptr, ptr, i32, ptr, %struct.ssl_dane_st, ptr, ptr, ptr, ptr, i32, [64 x i8], [64 x i8], [64 x i8], [64 x i8], [64 x i8], [64 x i8], [64 x i8], [64 x i8], [64 x i8], [64 x i8], [64 x i8], [64 x i8], ptr, [64 x i8], i64, i32, i64, [32 x i8], ptr, ptr, ptr, i64, ptr, [32 x i8], i64, i32, ptr, ptr, i32, i32, ptr, ptr, ptr, ptr, ptr, i64, ptr, ptr, i64, i32, i32, i32, i64, i32, i32, i64, i64, i64, %struct.anon.1, ptr, i32, ptr, ptr, ptr, i32, ptr, ptr, ptr, i32, i32, i32, i32, ptr, i64, i32, ptr, %struct.srp_ctx_st, ptr, %struct.record_layer_st, ptr, ptr, ptr, ptr, i64, i32, i32, i32, i64, i64, i64, ptr, ptr, ptr, ptr, ptr, i64, ptr, i64, ptr, i64 }
%struct.ssl_st = type { i32, ptr, ptr, ptr, %struct.CRYPTO_REF_COUNT, ptr, %struct.crypto_ex_data_st }
%struct.CRYPTO_REF_COUNT = type { i32 }
%struct.crypto_ex_data_st = type { ptr, ptr }
%struct.OSSL_TIME = type { i64 }
%struct.ossl_statem_st = type { i32, i32, i32, i32, i32, i32, i32, i32, i32, i32, i32, i32, i32, ptr, ptr, ptr, i8 }
%struct.ossl_quic_tls_callbacks_st = type { ptr, ptr, ptr, ptr, ptr, ptr }
%struct.anon = type { i64, [32 x i8], [32 x i8], ptr, ptr, i32, i32, i32, i32, [2 x i8], i32, i32, i32, i32, %struct.anon.0, [64 x i8], i64, [64 x i8], i64, i32, i32, ptr, i64, ptr, i64, i32, i8, i8, i16, ptr, i16 }
%struct.anon.0 = type { [128 x i8], i64, [128 x i8], i64, i64, i32, ptr, ptr, [4 x ptr], [4 x i16], i64, i32, ptr, i64, ptr, i64, ptr, ptr, ptr, i32, i64, ptr, i32, ptr, i64, ptr, i64, ptr, i64, ptr, ptr, ptr, ptr, i64, i64, ptr, ptr, i32, i32, i32, i32 }
%struct.ssl_dane_st = type { ptr, ptr, ptr, ptr, ptr, i32, i32, i32, i64 }
%struct.anon.1 = type { [29 x i8], ptr, ptr, ptr, i32, ptr, i16, i32, %struct.anon.2, i32, i32, i64, ptr, i64, ptr, i64, ptr, i64, ptr, i64, ptr, i64, ptr, ptr, ptr, ptr, ptr, ptr, ptr, i64, ptr, i64, i32, i32, i32, i32, ptr, i64, i32, i8, i32, [4 x i32], i32, i8, i8, i8, i8 }
%struct.anon.2 = type { ptr, ptr, ptr, i64 }
%struct.srp_ctx_st = type { ptr, ptr, ptr, ptr, ptr, ptr, ptr, ptr, ptr, ptr, ptr, ptr, ptr, ptr, i32, i64 }
%struct.record_layer_st = type { ptr, ptr, ptr, ptr, ptr, ptr, ptr, ptr, i64, i32, i64, [4 x i8], i64, i64, i8, ptr, i32, ptr, ptr, ptr, i64, i64, i64, i64, [32 x %struct.tls_record_st] }
%struct.tls_record_st = type { ptr, i32, i8, ptr, ptr, i64, i64, i16, [8 x i8] }
%struct.ssl_method_st = type { i32, i32, i64, ptr, ptr, ptr, ptr, ptr, ptr, ptr, ptr, ptr, ptr, ptr, ptr, ptr, ptr, ptr, ptr, ptr, ptr, ptr, ptr, ptr, ptr, ptr, ptr, ptr, ptr, ptr, ptr, ptr }
%struct.ssl_async_args = type { ptr, ptr, i64, i32, %union.anon }
%union.anon = type { ptr }

@.str = private unnamed_addr constant [25 x i8] c"../openssl/ssl/ssl_lib.c\00", align 1
@__func__.SSL_do_handshake = private unnamed_addr constant [17 x i8] c"SSL_do_handshake\00", align 1

; Function Attrs: nounwind uwtable
define i32 @SSL_do_handshake(ptr noundef %0) #0 {
  %2 = alloca i32, align 4
  %3 = alloca ptr, align 8
  %4 = alloca i32, align 4
  %5 = alloca ptr, align 8
  %6 = alloca i32, align 4
  %7 = alloca %struct.ssl_async_args, align 8
  store ptr %0, ptr %3, align 8, !tbaa !16
  call void @llvm.lifetime.start.p0(i64 4, ptr %4) #9
  store i32 1, ptr %4, align 4, !tbaa !14
  call void @llvm.lifetime.start.p0(i64 8, ptr %5) #9
  %8 = load ptr, ptr %3, align 8, !tbaa !16
  %9 = icmp eq ptr %8, null
  br i1 %9, label %10, label %11

10:                                               ; preds = %1
  br label %32

11:                                               ; preds = %1
  %12 = load ptr, ptr %3, align 8, !tbaa !16
  %13 = getelementptr inbounds nuw %struct.ssl_st, ptr %12, i32 0, i32 0
  %14 = load i32, ptr %13, align 8, !tbaa !29
  %15 = icmp eq i32 %14, 0
  br i1 %15, label %16, label %18

16:                                               ; preds = %11
  %17 = load ptr, ptr %3, align 8, !tbaa !16
  br label %30

18:                                               ; preds = %11
  %19 = load ptr, ptr %3, align 8, !tbaa !16
  %20 = getelementptr inbounds nuw %struct.ssl_st, ptr %19, i32 0, i32 0
  %21 = load i32, ptr %20, align 8, !tbaa !29
  %22 = and i32 %21, 128
  %23 = icmp ne i32 %22, 0
  br i1 %23, label %24, label %27

24:                                               ; preds = %18
  %25 = load ptr, ptr %3, align 8, !tbaa !16
  %26 = call ptr @ossl_quic_obj_get0_handshake_layer(ptr noundef %25)
  br label %28

27:                                               ; preds = %18
  br label %28

28:                                               ; preds = %27, %24
  %29 = phi ptr [ %26, %24 ], [ null, %27 ]
  br label %30

30:                                               ; preds = %28, %16
  %31 = phi ptr [ %17, %16 ], [ %29, %28 ]
  br label %32

32:                                               ; preds = %30, %10
  %33 = phi ptr [ null, %10 ], [ %31, %30 ]
  store ptr %33, ptr %5, align 8, !tbaa !3
  %34 = load ptr, ptr %3, align 8, !tbaa !16
  %35 = icmp ne ptr %34, null
  br i1 %35, label %36, label %45

36:                                               ; preds = %32
  %37 = load ptr, ptr %3, align 8, !tbaa !16
  %38 = getelementptr inbounds nuw %struct.ssl_st, ptr %37, i32 0, i32 0
  %39 = load i32, ptr %38, align 8, !tbaa !29
  %40 = and i32 %39, 128
  %41 = icmp ne i32 %40, 0
  br i1 %41, label %42, label %45

42:                                               ; preds = %36
  %43 = load ptr, ptr %3, align 8, !tbaa !16
  %44 = call i32 @ossl_quic_do_handshake(ptr noundef %43)
  store i32 %44, ptr %2, align 4
  store i32 1, ptr %6, align 4
  br label %90

45:                                               ; preds = %36, %32
  %46 = load ptr, ptr %5, align 8, !tbaa !3
  %47 = getelementptr inbounds nuw %struct.ssl_connection_st, ptr %46, i32 0, i32 7
  %48 = load ptr, ptr %47, align 8, !tbaa !431
  %49 = icmp eq ptr %48, null
  br i1 %49, label %50, label %51

50:                                               ; preds = %45
  call void @ERR_new()
  call void @ERR_set_debug(ptr noundef @.str, i32 noundef 4924, ptr noundef @__func__.SSL_do_handshake)
  call void (i32, i32, ptr, ...) @ERR_set_error(i32 noundef 20, i32 noundef 144, ptr noundef null)
  store i32 -1, ptr %2, align 4
  store i32 1, ptr %6, align 4
  br label %90

51:                                               ; preds = %45
  %52 = load ptr, ptr %5, align 8, !tbaa !3
  call void @ossl_statem_check_finish_init(ptr noundef %52, i32 noundef -1)
  %53 = load ptr, ptr %3, align 8, !tbaa !16
  %54 = getelementptr inbounds nuw %struct.ssl_st, ptr %53, i32 0, i32 3
  %55 = load ptr, ptr %54, align 8, !tbaa !18
  %56 = getelementptr inbounds nuw %struct.ssl_method_st, ptr %55, i32 0, i32 16
  %57 = load ptr, ptr %56, align 8, !tbaa !432
  %58 = load ptr, ptr %3, align 8, !tbaa !16
  %59 = call i32 %57(ptr noundef %58, i32 noundef 0)
  %60 = load ptr, ptr %3, align 8, !tbaa !16
  %61 = call i32 @SSL_in_init(ptr noundef %60)
  %62 = icmp ne i32 %61, 0
  br i1 %62, label %67, label %63

63:                                               ; preds = %51
  %64 = load ptr, ptr %3, align 8, !tbaa !16
  %65 = call i32 @SSL_in_before(ptr noundef %64)
  %66 = icmp ne i32 %65, 0
  br i1 %66, label %67, label %88

67:                                               ; preds = %63, %51
  %68 = load ptr, ptr %5, align 8, !tbaa !3
  %69 = getelementptr inbounds nuw %struct.ssl_connection_st, ptr %68, i32 0, i32 75
  %70 = load i32, ptr %69, align 8, !tbaa !144
  %71 = and i32 %70, 256
  %72 = icmp ne i32 %71, 0
  br i1 %72, label %73, label %81

73:                                               ; preds = %67
  %74 = call ptr @ASYNC_get_current_job()
  %75 = icmp eq ptr %74, null
  br i1 %75, label %76, label %81

76:                                               ; preds = %73
  call void @llvm.lifetime.start.p0(i64 40, ptr %7) #9
  call void @llvm.memset.p0.i64(ptr align 8 %7, i8 0, i64 40, i1 false)
  %77 = load ptr, ptr %3, align 8, !tbaa !16
  %78 = getelementptr inbounds nuw %struct.ssl_async_args, ptr %7, i32 0, i32 0
  store ptr %77, ptr %78, align 8, !tbaa !433
  %79 = load ptr, ptr %3, align 8, !tbaa !16
  %80 = call i32 @ssl_start_async_job(ptr noundef %79, ptr noundef %7, ptr noundef @ssl_do_handshake_intern)
  store i32 %80, ptr %4, align 4, !tbaa !14
  call void @llvm.lifetime.end.p0(i64 40, ptr %7) #9
  br label %87

81:                                               ; preds = %73, %67
  %82 = load ptr, ptr %5, align 8, !tbaa !3
  %83 = getelementptr inbounds nuw %struct.ssl_connection_st, ptr %82, i32 0, i32 7
  %84 = load ptr, ptr %83, align 8, !tbaa !431
  %85 = load ptr, ptr %3, align 8, !tbaa !16
  %86 = call i32 %84(ptr noundef %85)
  store i32 %86, ptr %4, align 4, !tbaa !14
  br label %87

87:                                               ; preds = %81, %76
  br label %88

88:                                               ; preds = %87, %63
  %89 = load i32, ptr %4, align 4, !tbaa !14
  store i32 %89, ptr %2, align 4
  store i32 1, ptr %6, align 4
  br label %90

90:                                               ; preds = %88, %50, %42
  call void @llvm.lifetime.end.p0(i64 8, ptr %5) #9
  call void @llvm.lifetime.end.p0(i64 4, ptr %4) #9
  %91 = load i32, ptr %2, align 4
  ret i32 %91
}