; Function Attrs: nounwind uwtable
define i32 @SSL_do_handshake(ptr noundef %0) local_unnamed_addr #0 {
  %2 = alloca %struct.ssl_async_args, align 8
  %3 = icmp eq ptr %0, null
  br i1 %3, label %.thread, label %4

4:                                                ; preds = %1
  %5 = load i32, ptr %0, align 8, !tbaa !19
  %6 = icmp eq i32 %5, 0
  br i1 %6, label %.thread, label %7

7:                                                ; preds = %4
  %8 = and i32 %5, 128
  %.not = icmp eq i32 %8, 0
  br i1 %.not, label %11, label %9

9:                                                ; preds = %7
  %10 = tail call ptr @ossl_quic_obj_get0_handshake_layer(ptr noundef nonnull %0) #20
  %.pre = load i32, ptr %0, align 8, !tbaa !19
  br label %11

11:                                               ; preds = %7, %9
  %12 = phi i32 [ %5, %7 ], [ %.pre, %9 ]
  %.ph = phi ptr [ null, %7 ], [ %10, %9 ]
  %13 = and i32 %12, 128
  %.not24 = icmp eq i32 %13, 0
  br i1 %.not24, label %.thread, label %14

14:                                               ; preds = %11
  %15 = tail call i32 @ossl_quic_do_handshake(ptr noundef nonnull %0) #20
  br label %43

.thread:                                          ; preds = %4, %1, %11
  %16 = phi ptr [ %.ph, %11 ], [ null, %1 ], [ %0, %4 ]
  %17 = getelementptr inbounds nuw i8, ptr %16, i64 112
  %18 = load ptr, ptr %17, align 8, !tbaa !390
  %19 = icmp eq ptr %18, null
  br i1 %19, label %20, label %21

20:                                               ; preds = %.thread
  tail call void @ERR_new() #20
  tail call void @ERR_set_debug(ptr noundef nonnull @.str, i32 noundef 4924, ptr noundef nonnull @__func__.SSL_do_handshake) #20
  tail call void (i32, i32, ptr, ...) @ERR_set_error(i32 noundef 20, i32 noundef 144, ptr noundef null) #20
  br label %43

21:                                               ; preds = %.thread
  tail call void @ossl_statem_check_finish_init(ptr noundef nonnull %16, i32 noundef -1) #20
  %22 = getelementptr inbounds nuw i8, ptr %0, i64 24
  %23 = load ptr, ptr %22, align 8, !tbaa !3
  %24 = getelementptr inbounds nuw i8, ptr %23, i64 120
  %25 = load ptr, ptr %24, align 8, !tbaa !391
  %26 = tail call i32 %25(ptr noundef %0, i32 noundef 0) #20
  %27 = tail call i32 @SSL_in_init(ptr noundef %0) #20
  %.not25 = icmp eq i32 %27, 0
  br i1 %.not25, label %28, label %30

28:                                               ; preds = %21
  %29 = tail call i32 @SSL_in_before(ptr noundef nonnull %0) #20
  %.not26 = icmp eq i32 %29, 0
  br i1 %.not26, label %43, label %30

30:                                               ; preds = %28, %21
  %31 = getelementptr inbounds nuw i8, ptr %16, i64 2488
  %32 = load i32, ptr %31, align 8, !tbaa !130
  %33 = and i32 %32, 256
  %.not27 = icmp eq i32 %33, 0
  br i1 %.not27, label %40, label %34

34:                                               ; preds = %30
  %35 = tail call ptr @ASYNC_get_current_job() #20
  %36 = icmp eq ptr %35, null
  br i1 %36, label %37, label %40

37:                                               ; preds = %34
  call void @llvm.lifetime.start.p0(i64 40, ptr nonnull %2) #20
  %38 = getelementptr inbounds nuw i8, ptr %2, i64 8
  call void @llvm.memset.p0.i64(ptr noundef nonnull align 8 dereferenceable(40) %38, i8 0, i64 32, i1 false)
  store ptr %0, ptr %2, align 8, !tbaa !392
  %39 = call fastcc i32 @ssl_start_async_job(ptr noundef nonnull %0, ptr noundef %2, ptr noundef nonnull @ssl_do_handshake_intern)
  call void @llvm.lifetime.end.p0(i64 40, ptr nonnull %2) #20
  br label %43

40:                                               ; preds = %34, %30
  %41 = load ptr, ptr %17, align 8, !tbaa !390
  %42 = tail call i32 %41(ptr noundef nonnull %0) #20
  br label %43

43:                                               ; preds = %28, %40, %37, %20, %14
  %.0 = phi i32 [ %15, %14 ], [ -1, %20 ], [ %39, %37 ], [ %42, %40 ], [ 1, %28 ]
  ret i32 %.0
}